target datalayout = "e-m:e-p270:32:32-p271:32:32-p272:64:64-i64:64-i128:128-f80:128-n8:16:32:64-S128"
target triple = "x86_64-pc-linux-gnu"

%struct.H5E_stack_t = type { i64, [32 x %struct.H5E_entry_t], %struct.H5E_auto_op_t, ptr, i32 }
%struct.H5E_entry_t = type { i8, %struct.H5E_error2_t }
%struct.H5E_error2_t = type { i64, i64, i64, i32, ptr, ptr, ptr }
%struct.H5E_auto_op_t = type { i32, i8, ptr, ptr, ptr, ptr }
%struct.H5E_user_cb_state_t = type { i32, %union.anon, ptr }
%union.anon = type { ptr }

@H5E_ERROR_g = global i64 -1, align 8
@H5E_FUNC_g = global i64 -1, align 8
@H5E_CANTINIT_g = global i64 -1, align 8
@H5E_CANTGET_g = global i64 -1, align 8
@H5E_init_g = external global i8, align 1
@H5_libterm_g = external global i8, align 1
@.str.1 = private unnamed_addr constant [100 x i8] c"generated/home/dtcxzyw/WorkSpace/Projects/compilers/llvm-opt-benchmark/bench/hdf5/hdf5/src/H5Eint.c\00", align 1
@.str.2 = private unnamed_addr constant [32 x i8] c"interface initialization failed\00", align 1
@H5E_stack_g = global [1 x %struct.H5E_stack_t] zeroinitializer, align 16
@__func__.H5E_user_cb_prepare = private unnamed_addr constant [20 x i8] c"H5E_user_cb_prepare\00", align 1
@.str.7 = private unnamed_addr constant [30 x i8] c"can't get current error stack\00", align 1

; Function Attrs: nounwind uwtable
define i32 @H5E_user_cb_prepare(ptr noundef %0) #0 {
  %2 = alloca ptr, align 8
  %3 = alloca ptr, align 8
  %4 = alloca i32, align 4
  %5 = alloca i8, align 1
  store ptr %0, ptr %2, align 8, !tbaa !22
  call void @llvm.lifetime.start.p0(i64 8, ptr %3) #9
  call void @llvm.lifetime.start.p0(i64 4, ptr %4) #9
  store i32 0, ptr %4, align 4, !tbaa !3
  call void @llvm.lifetime.start.p0(i64 1, ptr %5) #9
  store i8 0, ptr %5, align 1, !tbaa !7
  %6 = load i8, ptr @H5E_init_g, align 1, !tbaa !7, !range !9, !noundef !10
  %7 = trunc i8 %6 to i1
  br i1 %7, label %12, label %8

8:                                                ; preds = %1
  %9 = load i8, ptr @H5_libterm_g, align 1, !tbaa !7, !range !9, !noundef !10
  %10 = trunc i8 %9 to i1
  %11 = xor i1 %10, true
  br label %12

12:                                               ; preds = %8, %1
  %13 = phi i1 [ false, %1 ], [ %11, %8 ]
  %14 = xor i1 %13, true
  %15 = xor i1 %14, true
  %16 = zext i1 %15 to i32
  %17 = sext i32 %16 to i64
  %18 = call i64 @llvm.expect.i64(i64 %17, i64 0)
  %19 = icmp ne i64 %18, 0
  br i1 %19, label %20, label %43

20:                                               ; preds = %12
  store i8 1, ptr @H5E_init_g, align 1, !tbaa !7
  %21 = call i32 @H5E__init_package()
  %22 = icmp slt i32 %21, 0
  br i1 %22, label %23, label %42

23:                                               ; preds = %20
  store i8 0, ptr @H5E_init_g, align 1, !tbaa !7
  br label %24

24:                                               ; preds = %23
  br label %25

25:                                               ; preds = %24
  br label %26

26:                                               ; preds = %25
  %27 = load i64, ptr @H5E_FUNC_g, align 8, !tbaa !11
  %28 = load i64, ptr @H5E_CANTINIT_g, align 8, !tbaa !11
  %29 = call i32 (ptr, ptr, i32, i64, i64, ptr, ...) @H5E_printf_stack(ptr noundef @.str.1, ptr noundef @__func__.H5E_user_cb_prepare, i32 noundef 373, i64 noundef %27, i64 noundef %28, ptr noundef @.str.2)
  br label %30

30:                                               ; preds = %26
  br label %31

31:                                               ; preds = %30
  store i8 1, ptr %5, align 1, !tbaa !7
  %32 = load i8, ptr %5, align 1, !tbaa !7, !range !9, !noundef !10
  %33 = trunc i8 %32 to i1
  %34 = zext i1 %33 to i8
  store i8 %34, ptr %5, align 1, !tbaa !7
  br label %35

35:                                               ; preds = %31
  br label %36

36:                                               ; preds = %35
  br label %37

37:                                               ; preds = %36
  store i32 -1, ptr %4, align 4, !tbaa !3
  br label %110

38:                                               ; No predecessors!
  br label %39

39:                                               ; preds = %38
  br label %40

40:                                               ; preds = %39
  br label %41

41:                                               ; preds = %40
  br label %42

42:                                               ; preds = %41, %20
  br label %43

43:                                               ; preds = %42, %12
  %44 = load i8, ptr @H5E_init_g, align 1, !tbaa !7, !range !9, !noundef !10
  %45 = trunc i8 %44 to i1
  br i1 %45, label %50, label %46

46:                                               ; preds = %43
  %47 = load i8, ptr @H5_libterm_g, align 1, !tbaa !7, !range !9, !noundef !10
  %48 = trunc i8 %47 to i1
  %49 = xor i1 %48, true
  br label %50

50:                                               ; preds = %46, %43
  %51 = phi i1 [ true, %43 ], [ %49, %46 ]
  %52 = xor i1 %51, true
  %53 = xor i1 %52, true
  %54 = zext i1 %53 to i32
  %55 = sext i32 %54 to i64
  %56 = call i64 @llvm.expect.i64(i64 %55, i64 1)
  %57 = icmp ne i64 %56, 0
  br i1 %57, label %58, label %111

58:                                               ; preds = %50
  store ptr @H5E_stack_g, ptr %3, align 8, !tbaa !16
  br i1 false, label %59, label %78

59:                                               ; preds = %58
  br label %60

60:                                               ; preds = %59
  br label %61

61:                                               ; preds = %60
  br label %62

62:                                               ; preds = %61
  %63 = load i64, ptr @H5E_ERROR_g, align 8, !tbaa !11
  %64 = load i64, ptr @H5E_CANTGET_g, align 8, !tbaa !11
  %65 = call i32 (ptr, ptr, i32, i64, i64, ptr, ...) @H5E_printf_stack(ptr noundef @.str.1, ptr noundef @__func__.H5E_user_cb_prepare, i32 noundef 377, i64 noundef %63, i64 noundef %64, ptr noundef @.str.7)
  br label %66

66:                                               ; preds = %62
  br label %67

67:                                               ; preds = %66
  store i8 1, ptr %5, align 1, !tbaa !7
  %68 = load i8, ptr %5, align 1, !tbaa !7, !range !9, !noundef !10
  %69 = trunc i8 %68 to i1
  %70 = zext i1 %69 to i8
  store i8 %70, ptr %5, align 1, !tbaa !7
  br label %71

71:                                               ; preds = %67
  br label %72

72:                                               ; preds = %71
  br label %73

73:                                               ; preds = %72
  store i32 -1, ptr %4, align 4, !tbaa !3
  br label %110

74:                                               ; No predecessors!
  br label %75

75:                                               ; preds = %74
  br label %76

76:                                               ; preds = %75
  br label %77

77:                                               ; preds = %76
  br label %78

78:                                               ; preds = %77, %58
  %79 = load ptr, ptr %3, align 8, !tbaa !16
  %80 = getelementptr inbounds nuw %struct.H5E_stack_t, ptr %79, i32 0, i32 2
  %81 = getelementptr inbounds nuw %struct.H5E_auto_op_t, ptr %80, i32 0, i32 0
  %82 = load i32, ptr %81, align 8, !tbaa !24
  %83 = load ptr, ptr %2, align 8, !tbaa !22
  %84 = getelementptr inbounds nuw %struct.H5E_user_cb_state_t, ptr %83, i32 0, i32 0
  store i32 %82, ptr %84, align 8, !tbaa !25
  %85 = load ptr, ptr %3, align 8, !tbaa !16
  %86 = getelementptr inbounds nuw %struct.H5E_stack_t, ptr %85, i32 0, i32 2
  %87 = getelementptr inbounds nuw %struct.H5E_auto_op_t, ptr %86, i32 0, i32 0
  %88 = load i32, ptr %87, align 8, !tbaa !24
  %89 = icmp eq i32 1, %88
  br i1 %89, label %90, label %97

90:                                               ; preds = %78
  %91 = load ptr, ptr %3, align 8, !tbaa !16
  %92 = getelementptr inbounds nuw %struct.H5E_stack_t, ptr %91, i32 0, i32 2
  %93 = getelementptr inbounds nuw %struct.H5E_auto_op_t, ptr %92, i32 0, i32 2
  %94 = load ptr, ptr %93, align 8, !tbaa !27
  %95 = load ptr, ptr %2, align 8, !tbaa !22
  %96 = getelementptr inbounds nuw %struct.H5E_user_cb_state_t, ptr %95, i32 0, i32 1
  store ptr %94, ptr %96, align 8, !tbaa !28
  br label %104

97:                                               ; preds = %78
  %98 = load ptr, ptr %3, align 8, !tbaa !16
  %99 = getelementptr inbounds nuw %struct.H5E_stack_t, ptr %98, i32 0, i32 2
  %100 = getelementptr inbounds nuw %struct.H5E_auto_op_t, ptr %99, i32 0, i32 3
  %101 = load ptr, ptr %100, align 8, !tbaa !29
  %102 = load ptr, ptr %2, align 8, !tbaa !22
  %103 = getelementptr inbounds nuw %struct.H5E_user_cb_state_t, ptr %102, i32 0, i32 1
  store ptr %101, ptr %103, align 8, !tbaa !28
  br label %104

104:                                              ; preds = %97, %90
  %105 = load ptr, ptr %3, align 8, !tbaa !16
  %106 = getelementptr inbounds nuw %struct.H5E_stack_t, ptr %105, i32 0, i32 3
  %107 = load ptr, ptr %106, align 8, !tbaa !30
  %108 = load ptr, ptr %2, align 8, !tbaa !22
  %109 = getelementptr inbounds nuw %struct.H5E_user_cb_state_t, ptr %108, i32 0, i32 2
  store ptr %107, ptr %109, align 8, !tbaa !31
  br label %110

110:                                              ; preds = %104, %73, %37
  br label %111

111:                                              ; preds = %110, %50
  %112 = load i32, ptr %4, align 4, !tbaa !3
  call void @llvm.lifetime.end.p0(i64 1, ptr %5) #9
  call void @llvm.lifetime.end.p0(i64 4, ptr %4) #9
  call void @llvm.lifetime.end.p0(i64 8, ptr %3) #9
  ret i32 %112
}