; Function Attrs: nounwind uwtable
define range(i32 -1, 1) i32 @H5E_user_cb_prepare(ptr noundef writeonly captures(none) %0) local_unnamed_addr #0 {
  %2 = load i8, ptr @H5E_init_g, align 1, !tbaa !3, !range !7, !noundef !8
  %3 = trunc nuw i8 %2 to i1
  %4 = load i8, ptr @H5_libterm_g, align 1, !range !7
  %5 = trunc nuw i8 %4 to i1
  %6 = select i1 %3, i1 true, i1 %5
  br i1 %6, label %14, label %7, !prof !9

7:                                                ; preds = %1
  store i8 1, ptr @H5E_init_g, align 1, !tbaa !3
  %8 = tail call i32 @H5E__init_package()
  %9 = icmp slt i32 %8, 0
  br i1 %9, label %10, label %._crit_edge

._crit_edge:                                      ; preds = %7
  %.pre = load i8, ptr @H5E_init_g, align 1, !tbaa !3, !range !7
  %.pre10 = load i8, ptr @H5_libterm_g, align 1, !range !7
  %.pre11 = trunc nuw i8 %.pre to i1
  %.pre12 = trunc nuw i8 %.pre10 to i1
  br label %14

10:                                               ; preds = %7
  store i8 0, ptr @H5E_init_g, align 1, !tbaa !3
  %11 = load i64, ptr @H5E_FUNC_g, align 8, !tbaa !10
  %12 = load i64, ptr @H5E_CANTINIT_g, align 8, !tbaa !10
  %13 = tail call i32 (ptr, ptr, i32, i64, i64, ptr, ...) @H5E_printf_stack(ptr noundef nonnull @.str.1, ptr noundef nonnull @__func__.H5E_user_cb_prepare, i32 noundef 373, i64 noundef %11, i64 noundef %12, ptr noundef nonnull @.str.2)
  br label %23

14:                                               ; preds = %._crit_edge, %1
  %.pre-phi13 = phi i1 [ %.pre12, %._crit_edge ], [ %5, %1 ]
  %.pre-phi = phi i1 [ %.pre11, %._crit_edge ], [ %3, %1 ]
  %15 = xor i1 %.pre-phi13, true
  %16 = select i1 %.pre-phi, i1 true, i1 %15
  br i1 %16, label %17, label %23, !prof !9

17:                                               ; preds = %14
  %18 = load i32, ptr getelementptr inbounds nuw (i8, ptr @H5E_stack_g, i64 2056), align 8, !tbaa !30
  store i32 %18, ptr %0, align 8, !tbaa !31
  %19 = icmp eq i32 %18, 1
  %.val = load ptr, ptr getelementptr inbounds nuw (i8, ptr @H5E_stack_g, i64 2064), align 16
  %.val14 = load ptr, ptr getelementptr inbounds nuw (i8, ptr @H5E_stack_g, i64 2072), align 8
  %.sink = select i1 %19, ptr %.val, ptr %.val14
  %20 = getelementptr inbounds nuw i8, ptr %0, i64 8
  store ptr %.sink, ptr %20, align 8, !tbaa !33
  %21 = load ptr, ptr getelementptr inbounds nuw (i8, ptr @H5E_stack_g, i64 2096), align 16, !tbaa !34
  %22 = getelementptr inbounds nuw i8, ptr %0, i64 16
  store ptr %21, ptr %22, align 8, !tbaa !35
  br label %23

23:                                               ; preds = %10, %17, %14
  %.0 = phi i32 [ -1, %10 ], [ 0, %17 ], [ 0, %14 ]
  ret i32 %.0
}